; ModuleID = 'source-C-CXX/40/47.cpp'
source_filename = "source-C-CXX/40/47.cpp"
target datalayout = "e-m:e-p270:32:32-p271:32:32-p272:64:64-i64:64-f80:128-n8:16:32:64-S128"
target triple = "x86_64-pc-linux-gnu"

%"class.std::ios_base::Init" = type { i8 }
%"class.std::basic_ostream" = type { i32 (...)**, %"class.std::basic_ios" }
%"class.std::basic_ios" = type { %"class.std::ios_base", %"class.std::basic_ostream"*, i8, i8, %"class.std::basic_streambuf"*, %"class.std::ctype"*, %"class.std::num_put"*, %"class.std::num_get"* }
%"class.std::ios_base" = type { i32 (...)**, i64, i64, i32, i32, i32, %"struct.std::ios_base::_Callback_list"*, %"struct.std::ios_base::_Words", [8 x %"struct.std::ios_base::_Words"], i32, %"struct.std::ios_base::_Words"*, %"class.std::locale" }
%"struct.std::ios_base::_Callback_list" = type { %"struct.std::ios_base::_Callback_list"*, void (i32, %"class.std::ios_base"*, i32)*, i32, i32 }
%"struct.std::ios_base::_Words" = type { i8*, i64 }
%"class.std::locale" = type { %"class.std::locale::_Impl"* }
%"class.std::locale::_Impl" = type { i32, %"class.std::locale::facet"**, i64, %"class.std::locale::facet"**, i8** }
%"class.std::locale::facet" = type <{ i32 (...)**, i32, [4 x i8] }>
%"class.std::basic_streambuf" = type { i32 (...)**, i8*, i8*, i8*, i8*, i8*, i8*, %"class.std::locale" }
%"class.std::ctype" = type <{ %"class.std::locale::facet.base", [4 x i8], %struct.__locale_struct*, i8, [7 x i8], i32*, i32*, i16*, i8, [256 x i8], [256 x i8], i8, [6 x i8] }>
%"class.std::locale::facet.base" = type <{ i32 (...)**, i32 }>
%struct.__locale_struct = type { [13 x %struct.__locale_data*], i16*, i32*, i32*, [13 x i8*] }
%struct.__locale_data = type opaque
%"class.std::num_put" = type { %"class.std::locale::facet.base", [4 x i8] }
%"class.std::num_get" = type { %"class.std::locale::facet.base", [4 x i8] }

@_ZStL8__ioinit = internal global %"class.std::ios_base::Init" zeroinitializer, align 1
@__dso_handle = external hidden global i8
@_ZSt4cout = external global %"class.std::basic_ostream", align 8
@.str = private unnamed_addr constant [2 x i8] c" \00", align 1
@llvm.global_ctors = appending global [1 x { i32, void ()*, i8* }] [{ i32, void ()*, i8* } { i32 65535, void ()* @_GLOBAL__sub_I_47.cpp, i8* null }]

declare void @_ZNSt8ios_base4InitC1Ev(%"class.std::ios_base::Init"* nonnull align 1 dereferenceable(1)) unnamed_addr #0

; Function Attrs: nounwind
declare void @_ZNSt8ios_base4InitD1Ev(%"class.std::ios_base::Init"* nonnull align 1 dereferenceable(1)) unnamed_addr #1

; Function Attrs: nofree nounwind
declare i32 @__cxa_atexit(void (i8*)*, i8*, i8*) local_unnamed_addr #2

; Function Attrs: mustprogress norecurse sspstrong uwtable
define dso_local i32 @main() local_unnamed_addr #3 {
  br label %1

1:                                                ; preds = %0, %91
  %2 = phi i32 [ 1, %0 ], [ %92, %91 ]
  %3 = icmp ult i32 %2, 3
  %4 = icmp ne i32 %2, 5
  br label %5

5:                                                ; preds = %1, %88
  %6 = phi i32 [ 1, %1 ], [ %89, %88 ]
  %7 = icmp eq i32 %2, %6
  br i1 %7, label %88, label %8

8:                                                ; preds = %5
  %9 = add nuw nsw i32 %2, %6
  %10 = icmp ugt i32 %6, 1
  br i1 %10, label %11, label %88

11:                                               ; preds = %8, %16
  %12 = phi i32 [ %17, %16 ], [ 1, %8 ]
  %13 = icmp eq i32 %6, %12
  %14 = icmp eq i32 %12, %2
  %15 = select i1 %13, i1 true, i1 %14
  br i1 %15, label %16, label %19

16:                                               ; preds = %84, %19, %11
  %17 = add nuw nsw i32 %12, 1
  %18 = icmp eq i32 %17, 6
  br i1 %18, label %88, label %11, !llvm.loop !5

19:                                               ; preds = %11
  %20 = add nuw nsw i32 %9, %12
  %21 = icmp ult i32 %12, 3
  %22 = xor i1 %4, %21
  %23 = icmp eq i32 %12, 1
  br i1 %22, label %24, label %16

24:                                               ; preds = %19, %84
  %25 = phi i32 [ %85, %84 ], [ 1, %19 ]
  %26 = icmp eq i32 %6, %25
  %27 = icmp eq i32 %2, %25
  %28 = select i1 %26, i1 true, i1 %27
  %29 = icmp eq i32 %12, %25
  %30 = select i1 %28, i1 true, i1 %29
  br i1 %30, label %84, label %31

31:                                               ; preds = %24
  %32 = add nuw nsw i32 %20, %25
  %33 = sub nsw i32 15, %32
  %34 = icmp ne i32 %33, 1
  %35 = xor i1 %3, %34
  %36 = icmp ult i32 %25, 3
  %37 = xor i1 %23, %36
  %38 = select i1 %35, i1 %37, i1 false
  br i1 %38, label %39, label %84

39:                                               ; preds = %31
  %40 = icmp ugt i32 %32, 12
  %41 = icmp ne i32 %25, 1
  %42 = xor i1 %41, %40
  %43 = and i32 %33, -2
  %44 = icmp ne i32 %43, 2
  %45 = and i1 %44, %42
  br i1 %45, label %46, label %84

46:                                               ; preds = %39
  %47 = tail call nonnull align 8 dereferenceable(8) %"class.std::basic_ostream"* @_ZNSolsEi(%"class.std::basic_ostream"* nonnull align 8 dereferenceable(8) @_ZSt4cout, i32 %2)
  %48 = tail call nonnull align 8 dereferenceable(8) %"class.std::basic_ostream"* @_ZSt16__ostream_insertIcSt11char_traitsIcEERSt13basic_ostreamIT_T0_ES6_PKS3_l(%"class.std::basic_ostream"* nonnull align 8 dereferenceable(8) %47, i8* nonnull getelementptr inbounds ([2 x i8], [2 x i8]* @.str, i64 0, i64 0), i64 1)
  %49 = tail call nonnull align 8 dereferenceable(8) %"class.std::basic_ostream"* @_ZNSolsEi(%"class.std::basic_ostream"* nonnull align 8 dereferenceable(8) %47, i32 %6)
  %50 = tail call nonnull align 8 dereferenceable(8) %"class.std::basic_ostream"* @_ZSt16__ostream_insertIcSt11char_traitsIcEERSt13basic_ostreamIT_T0_ES6_PKS3_l(%"class.std::basic_ostream"* nonnull align 8 dereferenceable(8) %49, i8* nonnull getelementptr inbounds ([2 x i8], [2 x i8]* @.str, i64 0, i64 0), i64 1)
  %51 = tail call nonnull align 8 dereferenceable(8) %"class.std::basic_ostream"* @_ZNSolsEi(%"class.std::basic_ostream"* nonnull align 8 dereferenceable(8) %49, i32 %12)
  %52 = tail call nonnull align 8 dereferenceable(8) %"class.std::basic_ostream"* @_ZSt16__ostream_insertIcSt11char_traitsIcEERSt13basic_ostreamIT_T0_ES6_PKS3_l(%"class.std::basic_ostream"* nonnull align 8 dereferenceable(8) %51, i8* nonnull getelementptr inbounds ([2 x i8], [2 x i8]* @.str, i64 0, i64 0), i64 1)
  %53 = tail call nonnull align 8 dereferenceable(8) %"class.std::basic_ostream"* @_ZNSolsEi(%"class.std::basic_ostream"* nonnull align 8 dereferenceable(8) %51, i32 %25)
  %54 = tail call nonnull align 8 dereferenceable(8) %"class.std::basic_ostream"* @_ZSt16__ostream_insertIcSt11char_traitsIcEERSt13basic_ostreamIT_T0_ES6_PKS3_l(%"class.std::basic_ostream"* nonnull align 8 dereferenceable(8) %53, i8* nonnull getelementptr inbounds ([2 x i8], [2 x i8]* @.str, i64 0, i64 0), i64 1)
  %55 = tail call nonnull align 8 dereferenceable(8) %"class.std::basic_ostream"* @_ZNSolsEi(%"class.std::basic_ostream"* nonnull align 8 dereferenceable(8) %53, i32 %33)
  %56 = bitcast %"class.std::basic_ostream"* %55 to i8**
  %57 = load i8*, i8** %56, align 8, !tbaa !7
  %58 = getelementptr i8, i8* %57, i64 -24
  %59 = bitcast i8* %58 to i64*
  %60 = load i64, i64* %59, align 8
  %61 = bitcast %"class.std::basic_ostream"* %55 to i8*
  %62 = add nsw i64 %60, 240
  %63 = getelementptr inbounds i8, i8* %61, i64 %62
  %64 = bitcast i8* %63 to %"class.std::ctype"**
  %65 = load %"class.std::ctype"*, %"class.std::ctype"** %64, align 8, !tbaa !10
  %66 = icmp eq %"class.std::ctype"* %65, null
  br i1 %66, label %87, label %67

67:                                               ; preds = %46
  %68 = getelementptr inbounds %"class.std::ctype", %"class.std::ctype"* %65, i64 0, i32 8
  %69 = load i8, i8* %68, align 8, !tbaa !15
  %70 = icmp eq i8 %69, 0
  br i1 %70, label %74, label %71

71:                                               ; preds = %67
  %72 = getelementptr inbounds %"class.std::ctype", %"class.std::ctype"* %65, i64 0, i32 9, i64 10
  %73 = load i8, i8* %72, align 1, !tbaa !17
  br label %80

74:                                               ; preds = %67
  tail call void @_ZNKSt5ctypeIcE13_M_widen_initEv(%"class.std::ctype"* nonnull align 8 dereferenceable(570) %65)
  %75 = bitcast %"class.std::ctype"* %65 to i8 (%"class.std::ctype"*, i8)***
  %76 = load i8 (%"class.std::ctype"*, i8)**, i8 (%"class.std::ctype"*, i8)*** %75, align 8, !tbaa !7
  %77 = getelementptr inbounds i8 (%"class.std::ctype"*, i8)*, i8 (%"class.std::ctype"*, i8)** %76, i64 6
  %78 = load i8 (%"class.std::ctype"*, i8)*, i8 (%"class.std::ctype"*, i8)** %77, align 8
  %79 = tail call signext i8 %78(%"class.std::ctype"* nonnull align 8 dereferenceable(570) %65, i8 signext 10)
  br label %80

80:                                               ; preds = %74, %71
  %81 = phi i8 [ %73, %71 ], [ %79, %74 ]
  %82 = tail call nonnull align 8 dereferenceable(8) %"class.std::basic_ostream"* @_ZNSo3putEc(%"class.std::basic_ostream"* nonnull align 8 dereferenceable(8) %55, i8 signext %81)
  %83 = tail call nonnull align 8 dereferenceable(8) %"class.std::basic_ostream"* @_ZNSo5flushEv(%"class.std::basic_ostream"* nonnull align 8 dereferenceable(8) %82)
  br label %84

84:                                               ; preds = %80, %39, %31, %24
  %85 = add nuw nsw i32 %25, 1
  %86 = icmp eq i32 %85, 6
  br i1 %86, label %16, label %24, !llvm.loop !18

87:                                               ; preds = %46
  tail call void @_ZSt16__throw_bad_castv() #6
  unreachable

88:                                               ; preds = %16, %8, %5
  %89 = add nuw nsw i32 %6, 1
  %90 = icmp eq i32 %89, 6
  br i1 %90, label %91, label %5, !llvm.loop !19

91:                                               ; preds = %88
  %92 = add nuw nsw i32 %2, 1
  %93 = icmp eq i32 %92, 6
  br i1 %93, label %94, label %1, !llvm.loop !20

94:                                               ; preds = %91
  ret i32 0
}

declare nonnull align 8 dereferenceable(8) %"class.std::basic_ostream"* @_ZNSolsEi(%"class.std::basic_ostream"* nonnull align 8 dereferenceable(8), i32) local_unnamed_addr #0

declare nonnull align 8 dereferenceable(8) %"class.std::basic_ostream"* @_ZSt16__ostream_insertIcSt11char_traitsIcEERSt13basic_ostreamIT_T0_ES6_PKS3_l(%"class.std::basic_ostream"* nonnull align 8 dereferenceable(8), i8*, i64) local_unnamed_addr #0

declare nonnull align 8 dereferenceable(8) %"class.std::basic_ostream"* @_ZNSo3putEc(%"class.std::basic_ostream"* nonnull align 8 dereferenceable(8), i8 signext) local_unnamed_addr #0

declare nonnull align 8 dereferenceable(8) %"class.std::basic_ostream"* @_ZNSo5flushEv(%"class.std::basic_ostream"* nonnull align 8 dereferenceable(8)) local_unnamed_addr #0

; Function Attrs: noreturn
declare void @_ZSt16__throw_bad_castv() local_unnamed_addr #4

declare void @_ZNKSt5ctypeIcE13_M_widen_initEv(%"class.std::ctype"* nonnull align 8 dereferenceable(570)) local_unnamed_addr #0

; Function Attrs: sspstrong uwtable
define internal void @_GLOBAL__sub_I_47.cpp() #5 section ".text.startup" {
  tail call void @_ZNSt8ios_base4InitC1Ev(%"class.std::ios_base::Init"* nonnull align 1 dereferenceable(1) @_ZStL8__ioinit)
  %1 = tail call i32 @__cxa_atexit(void (i8*)* bitcast (void (%"class.std::ios_base::Init"*)* @_ZNSt8ios_base4InitD1Ev to void (i8*)*), i8* getelementptr inbounds (%"class.std::ios_base::Init", %"class.std::ios_base::Init"* @_ZStL8__ioinit, i64 0, i32 0), i8* nonnull @__dso_handle) #7
  ret void
}


!llvm.module.flags = !{!0, !1, !2, !3}
!llvm.ident = !{!4}

!0 = !{i32 1, !"wchar_size", i32 4}
!1 = !{i32 7, !"PIC Level", i32 2}
!2 = !{i32 7, !"PIE Level", i32 2}
!3 = !{i32 7, !"uwtable", i32 1}
!4 = !{!"clang version 13.0.0"}
!5 = distinct !{!5, !6}
!6 = !{!"llvm.loop.mustprogress"}
!7 = !{!8, !8, i64 0}
!8 = !{!"vtable pointer", !9, i64 0}
!9 = !{!"Simple C++ TBAA"}
!10 = !{!11, !12, i64 240}
!11 = !{!"_ZTSSt9basic_iosIcSt11char_traitsIcEE", !12, i64 216, !13, i64 224, !14, i64 225, !12, i64 232, !12, i64 240, !12, i64 248, !12, i64 256}
!12 = !{!"any pointer", !13, i64 0}
!13 = !{!"omnipotent char", !9, i64 0}
!14 = !{!"bool", !13, i64 0}
!15 = !{!16, !13, i64 56}
!16 = !{!"_ZTSSt5ctypeIcE", !12, i64 16, !14, i64 24, !12, i64 32, !12, i64 40, !12, i64 48, !13, i64 56, !13, i64 57, !13, i64 313, !13, i64 569}
!17 = !{!13, !13, i64 0}
!18 = distinct !{!18, !6}
!19 = distinct !{!19, !6}
!20 = distinct !{!20, !6}
